; Function Attrs: mustprogress uwtable
define hidden noundef zeroext i1 @_ZN3smt10theory_seq12propagate_eqEN3sat7literalEP4exprS4_b(ptr noundef nonnull align 8 dereferenceable(4328) %this, i32 %lit.coerce, ptr noundef %e1, ptr noundef %e2, i1 noundef zeroext %add_to_eqs) local_unnamed_addr #3 align 2 personality ptr @__gxx_personality_v0 {
if.then.i:
  %lits = alloca %class.svector.306, align 8
  store ptr null, ptr %lits, align 8
  invoke void @_ZN6vectorIN3sat7literalELb0EjE13expand_vectorEv(ptr noundef nonnull align 8 dereferenceable(8) %lits)
          to label %invoke.cont unwind label %lpad

invoke.cont:                                      ; preds = %if.then.i
  %.pre.i = load ptr, ptr %lits, align 8
  %arrayidx8.phi.trans.insert.i = getelementptr inbounds i8, ptr %.pre.i, i64 -4
  %.pre1.i = load i32, ptr %arrayidx8.phi.trans.insert.i, align 4
  %idx.ext.i = zext i32 %.pre1.i to i64
  %add.ptr.i = getelementptr inbounds %"class.sat::literal", ptr %.pre.i, i64 %idx.ext.i
  store i32 %lit.coerce, ptr %add.ptr.i, align 4
  %0 = load ptr, ptr %lits, align 8
  %arrayidx10.i = getelementptr inbounds i8, ptr %0, i64 -4
  %1 = load i32, ptr %arrayidx10.i, align 4
  %inc.i = add i32 %1, 1
  store i32 %inc.i, ptr %arrayidx10.i, align 4
  %call3 = invoke noundef zeroext i1 @_ZN3smt10theory_seq12propagate_eqEPN18dependency_managerIN25scoped_dependency_managerINS0_10assumptionEE6configEE10dependencyERK7svectorIN3sat7literalEjEP4exprSG_b(ptr noundef nonnull align 8 dereferenceable(4328) %this, ptr noundef null, ptr noundef nonnull align 8 dereferenceable(8) %lits, ptr noundef %e1, ptr noundef %e2, i1 noundef zeroext %add_to_eqs)
          to label %invoke.cont2 unwind label %lpad

invoke.cont2:                                     ; preds = %invoke.cont
  %2 = load ptr, ptr %lits, align 8
  %tobool.not.i.i.i = icmp eq ptr %2, null
  br i1 %tobool.not.i.i.i, label %_ZN7svectorIN3sat7literalEjED2Ev.exit, label %if.then.i.i.i

if.then.i.i.i:                                    ; preds = %invoke.cont2
  %add.ptr.i.i.i.i = getelementptr inbounds i8, ptr %2, i64 -8
  invoke void @_ZN6memory10deallocateEPv(ptr noundef nonnull %add.ptr.i.i.i.i)
          to label %_ZN7svectorIN3sat7literalEjED2Ev.exit unwind label %terminate.lpad.i.i

terminate.lpad.i.i:                               ; preds = %if.then.i.i.i
  %3 = landingpad { ptr, i32 }
          catch ptr null
  %4 = extractvalue { ptr, i32 } %3, 0
  call void @__clang_call_terminate(ptr %4) #25
  unreachable

_ZN7svectorIN3sat7literalEjED2Ev.exit:            ; preds = %invoke.cont2, %if.then.i.i.i
  ret i1 %call3

lpad:                                             ; preds = %if.then.i, %invoke.cont
  %5 = landingpad { ptr, i32 }
          cleanup
  call void @_ZN7svectorIN3sat7literalEjED2Ev(ptr noundef nonnull align 8 dereferenceable(8) %lits) #23
  resume { ptr, i32 } %5
}